target datalayout = "e-m:e-p270:32:32-p271:32:32-p272:64:64-i64:64-i128:128-f80:128-n8:16:32:64-S128"
target triple = "x86_64-pc-linux-gnu"

%"class.Imath_3_2::Box" = type { %"class.Imath_3_2::Vec2.0", %"class.Imath_3_2::Vec2.0" }
%"class.Imath_3_2::Vec2.0" = type { i32, i32 }
%"class.std::__cxx11::basic_string" = type { %"struct.std::__cxx11::basic_string<char>::_Alloc_hider", i64, %union.anon }
%"struct.std::__cxx11::basic_string<char>::_Alloc_hider" = type { ptr }
%union.anon = type { i64, [8 x i8] }
%"class.Imf_3_4::RgbaInputFile" = type { ptr, ptr, ptr, ptr, %"class.std::__cxx11::basic_string" }
%"struct.Imf_3_4::Rgba" = type { %"class.Imath_3_2::half", %"class.Imath_3_2::half", %"class.Imath_3_2::half", %"class.Imath_3_2::half" }
%"class.Imath_3_2::half" = type { i16 }
%"class.Imf_3_4::Array2D" = type { i64, i64, ptr }

; Function Attrs: mustprogress nounwind uwtable
define linkonce_odr dso_local void @_ZN7Imf_3_44RgbaC2Ev(ptr noundef nonnull align 2 dereferenceable(8) %0) unnamed_addr #7 comdat align 2 {
  %2 = alloca ptr, align 8
  store ptr %0, ptr %2, align 8, !tbaa !9
  ret void
}

; Function Attrs: inlinehint mustprogress nounwind uwtable
define linkonce_odr dso_local void @_ZN9Imath_3_24Vec2IiEC2ERKS1_(ptr noundef nonnull align 4 dereferenceable(8) %0, ptr noundef nonnull align 4 dereferenceable(8) %1) unnamed_addr #6 comdat align 2 {
  %3 = alloca ptr, align 8
  %4 = alloca ptr, align 8
  store ptr %0, ptr %3, align 8, !tbaa !26
  store ptr %1, ptr %4, align 8, !tbaa !26
  %5 = load ptr, ptr %3, align 8
  %6 = getelementptr inbounds nuw %"class.Imath_3_2::Vec2.0", ptr %5, i32 0, i32 0
  %7 = load ptr, ptr %4, align 8, !tbaa !26
  %8 = getelementptr inbounds nuw %"class.Imath_3_2::Vec2.0", ptr %7, i32 0, i32 0
  %9 = load i32, ptr %8, align 4, !tbaa !28
  store i32 %9, ptr %6, align 4, !tbaa !28
  %10 = getelementptr inbounds nuw %"class.Imath_3_2::Vec2.0", ptr %5, i32 0, i32 1
  %11 = load ptr, ptr %4, align 8, !tbaa !26
  %12 = getelementptr inbounds nuw %"class.Imath_3_2::Vec2.0", ptr %11, i32 0, i32 1
  %13 = load i32, ptr %12, align 4, !tbaa !29
  store i32 %13, ptr %10, align 4, !tbaa !29
  ret void
}

; Function Attrs: inlinehint mustprogress nounwind uwtable
define linkonce_odr dso_local noundef ptr @_ZN7Imf_3_47Array2DINS_4RgbaEEixEl(ptr noundef nonnull align 8 dereferenceable(24) %0, i64 noundef %1) #6 comdat align 2 {
  %3 = alloca ptr, align 8
  %4 = alloca i64, align 8
  store ptr %0, ptr %3, align 8, !tbaa !36
  store i64 %1, ptr %4, align 8, !tbaa !42
  %5 = load ptr, ptr %3, align 8
  %6 = getelementptr inbounds nuw %"class.Imf_3_4::Array2D", ptr %5, i32 0, i32 2
  %7 = load ptr, ptr %6, align 8, !tbaa !44
  %8 = load i64, ptr %4, align 8, !tbaa !42
  %9 = getelementptr inbounds nuw %"class.Imf_3_4::Array2D", ptr %5, i32 0, i32 1
  %10 = load i64, ptr %9, align 8, !tbaa !47
  %11 = mul nsw i64 %8, %10
  %12 = getelementptr inbounds %"struct.Imf_3_4::Rgba", ptr %7, i64 %11
  ret ptr %12
}

; Function Attrs: inlinehint mustprogress uwtable
define linkonce_odr dso_local void @_ZN7Imf_3_47Array2DINS_4RgbaEE11resizeEraseEll(ptr noundef nonnull align 8 dereferenceable(24) %0, i64 noundef %1, i64 noundef %2) #8 comdat align 2 personality ptr @__gxx_personality_v0 {
  %4 = alloca ptr, align 8
  %5 = alloca i64, align 8
  %6 = alloca i64, align 8
  %7 = alloca ptr, align 8
  %8 = alloca ptr, align 8
  %9 = alloca i32, align 4
  store ptr %0, ptr %4, align 8, !tbaa !36
  store i64 %1, ptr %5, align 8, !tbaa !42
  store i64 %2, ptr %6, align 8, !tbaa !42
  %10 = load ptr, ptr %4, align 8
  call void @llvm.lifetime.start.p0(i64 8, ptr %7) #3
  %11 = load i64, ptr %5, align 8, !tbaa !42
  %12 = load i64, ptr %6, align 8, !tbaa !42
  %13 = mul nsw i64 %11, %12
  %14 = call { i64, i1 } @llvm.umul.with.overflow.i64(i64 %13, i64 8)
  %15 = extractvalue { i64, i1 } %14, 1
  %16 = extractvalue { i64, i1 } %14, 0
  %17 = select i1 %15, i64 -1, i64 %16
  %18 = call noalias noundef nonnull ptr @_Znam(i64 noundef %17) #20
  %19 = icmp eq i64 %13, 0
  br i1 %19, label %27, label %20

20:                                               ; preds = %3
  %21 = getelementptr inbounds %"struct.Imf_3_4::Rgba", ptr %18, i64 %13
  br label %22

22:                                               ; preds = %24, %20
  %23 = phi ptr [ %18, %20 ], [ %25, %24 ]
  invoke void @_ZN7Imf_3_44RgbaC2Ev(ptr noundef nonnull align 2 dereferenceable(8) %23)
          to label %24 unwind label %39

24:                                               ; preds = %22
  %25 = getelementptr inbounds %"struct.Imf_3_4::Rgba", ptr %23, i64 1
  %26 = icmp eq ptr %25, %21
  br i1 %26, label %27, label %22

27:                                               ; preds = %3, %24
  store ptr %18, ptr %7, align 8, !tbaa !9
  %28 = getelementptr inbounds nuw %"class.Imf_3_4::Array2D", ptr %10, i32 0, i32 2
  %29 = load ptr, ptr %28, align 8, !tbaa !44
  %30 = icmp eq ptr %29, null
  br i1 %30, label %32, label %31

31:                                               ; preds = %27
  call void @_ZdaPv(ptr noundef %29) #21
  br label %32

32:                                               ; preds = %31, %27
  %33 = load i64, ptr %5, align 8, !tbaa !42
  %34 = getelementptr inbounds nuw %"class.Imf_3_4::Array2D", ptr %10, i32 0, i32 0
  store i64 %33, ptr %34, align 8, !tbaa !46
  %35 = load i64, ptr %6, align 8, !tbaa !42
  %36 = getelementptr inbounds nuw %"class.Imf_3_4::Array2D", ptr %10, i32 0, i32 1
  store i64 %35, ptr %36, align 8, !tbaa !47
  %37 = load ptr, ptr %7, align 8, !tbaa !9
  %38 = getelementptr inbounds nuw %"class.Imf_3_4::Array2D", ptr %10, i32 0, i32 2
  store ptr %37, ptr %38, align 8, !tbaa !44
  call void @llvm.lifetime.end.p0(i64 8, ptr %7) #3
  ret void

39:                                               ; preds = %22
  %40 = landingpad { ptr, i32 }
          cleanup
  %41 = extractvalue { ptr, i32 } %40, 0
  store ptr %41, ptr %8, align 8
  %42 = extractvalue { ptr, i32 } %40, 1
  store i32 %42, ptr %9, align 4
  call void @_ZdaPvm(ptr noundef %18, i64 noundef %17) #21
  call void @llvm.lifetime.end.p0(i64 8, ptr %7) #3
  br label %43

43:                                               ; preds = %39
  %44 = load ptr, ptr %8, align 8
  %45 = load i32, ptr %9, align 4
  %46 = insertvalue { ptr, i32 } poison, ptr %44, 0
  %47 = insertvalue { ptr, i32 } %46, i32 %45, 1
  resume { ptr, i32 } %47
}

; Function Attrs: inlinehint mustprogress nounwind uwtable
define linkonce_odr dso_local void @_ZN9Imath_3_23BoxINS_4Vec2IiEEEC2ERKS3_(ptr noundef nonnull align 4 dereferenceable(16) %0, ptr noundef nonnull align 4 dereferenceable(16) %1) unnamed_addr #6 comdat align 2 {
  %3 = alloca ptr, align 8
  %4 = alloca ptr, align 8
  store ptr %0, ptr %3, align 8, !tbaa !20
  store ptr %1, ptr %4, align 8, !tbaa !20
  %5 = load ptr, ptr %3, align 8
  %6 = getelementptr inbounds nuw %"class.Imath_3_2::Box", ptr %5, i32 0, i32 0
  %7 = load ptr, ptr %4, align 8, !tbaa !20
  %8 = getelementptr inbounds nuw %"class.Imath_3_2::Box", ptr %7, i32 0, i32 0
  call void @_ZN9Imath_3_24Vec2IiEC2ERKS1_(ptr noundef nonnull align 4 dereferenceable(8) %6, ptr noundef nonnull align 4 dereferenceable(8) %8) #3
  %9 = getelementptr inbounds nuw %"class.Imath_3_2::Box", ptr %5, i32 0, i32 1
  %10 = load ptr, ptr %4, align 8, !tbaa !20
  %11 = getelementptr inbounds nuw %"class.Imath_3_2::Box", ptr %10, i32 0, i32 1
  call void @_ZN9Imath_3_24Vec2IiEC2ERKS1_(ptr noundef nonnull align 4 dereferenceable(8) %9, ptr noundef nonnull align 4 dereferenceable(8) %11) #3
  ret void
}

; Function Attrs: mustprogress uwtable
define dso_local void @_Z9readRgba1PKcRN7Imf_3_47Array2DINS1_4RgbaEEERiS6_(ptr noundef %0, ptr noundef nonnull align 8 dereferenceable(24) %1, ptr noundef nonnull align 4 dereferenceable(4) %2, ptr noundef nonnull align 4 dereferenceable(4) %3) #4 personality ptr @__gxx_personality_v0 {
  %5 = alloca ptr, align 8
  %6 = alloca ptr, align 8
  %7 = alloca ptr, align 8
  %8 = alloca ptr, align 8
  %9 = alloca %"class.Imf_3_4::RgbaInputFile", align 8
  %10 = alloca %"class.Imath_3_2::Box", align 4
  %11 = alloca ptr, align 8
  %12 = alloca i32, align 4
  store ptr %0, ptr %5, align 8, !tbaa !4
  store ptr %1, ptr %6, align 8, !tbaa !36
  store ptr %2, ptr %7, align 8, !tbaa !38
  store ptr %3, ptr %8, align 8, !tbaa !38
  call void @llvm.lifetime.start.p0(i64 64, ptr %9) #3
  %13 = load ptr, ptr %5, align 8, !tbaa !4
  %14 = call noundef i32 @_ZN7Imf_3_417globalThreadCountEv()
  call void @_ZN7Imf_3_413RgbaInputFileC1EPKci(ptr noundef nonnull align 8 dereferenceable(64) %9, ptr noundef %13, i32 noundef %14)
  call void @llvm.lifetime.start.p0(i64 16, ptr %10) #3
  %15 = invoke noundef nonnull align 4 dereferenceable(16) ptr @_ZNK7Imf_3_413RgbaInputFile10dataWindowEv(ptr noundef nonnull align 8 dereferenceable(64) %9)
          to label %16 unwind label %73

16:                                               ; preds = %4
  call void @_ZN9Imath_3_23BoxINS_4Vec2IiEEEC2ERKS3_(ptr noundef nonnull align 4 dereferenceable(16) %10, ptr noundef nonnull align 4 dereferenceable(16) %15) #3
  %17 = getelementptr inbounds nuw %"class.Imath_3_2::Box", ptr %10, i32 0, i32 1
  %18 = getelementptr inbounds nuw %"class.Imath_3_2::Vec2.0", ptr %17, i32 0, i32 0
  %19 = load i32, ptr %18, align 4, !tbaa !40
  %20 = getelementptr inbounds nuw %"class.Imath_3_2::Box", ptr %10, i32 0, i32 0
  %21 = getelementptr inbounds nuw %"class.Imath_3_2::Vec2.0", ptr %20, i32 0, i32 0
  %22 = load i32, ptr %21, align 4, !tbaa !41
  %23 = sub nsw i32 %19, %22
  %24 = add nsw i32 %23, 1
  %25 = load ptr, ptr %7, align 8, !tbaa !38
  store i32 %24, ptr %25, align 4, !tbaa !11
  %26 = getelementptr inbounds nuw %"class.Imath_3_2::Box", ptr %10, i32 0, i32 1
  %27 = getelementptr inbounds nuw %"class.Imath_3_2::Vec2.0", ptr %26, i32 0, i32 1
  %28 = load i32, ptr %27, align 4, !tbaa !22
  %29 = getelementptr inbounds nuw %"class.Imath_3_2::Box", ptr %10, i32 0, i32 0
  %30 = getelementptr inbounds nuw %"class.Imath_3_2::Vec2.0", ptr %29, i32 0, i32 1
  %31 = load i32, ptr %30, align 4, !tbaa !25
  %32 = sub nsw i32 %28, %31
  %33 = add nsw i32 %32, 1
  %34 = load ptr, ptr %8, align 8, !tbaa !38
  store i32 %33, ptr %34, align 4, !tbaa !11
  %35 = load ptr, ptr %6, align 8, !tbaa !36
  %36 = load ptr, ptr %8, align 8, !tbaa !38
  %37 = load i32, ptr %36, align 4, !tbaa !11
  %38 = sext i32 %37 to i64
  %39 = load ptr, ptr %7, align 8, !tbaa !38
  %40 = load i32, ptr %39, align 4, !tbaa !11
  %41 = sext i32 %40 to i64
  invoke void @_ZN7Imf_3_47Array2DINS_4RgbaEE11resizeEraseEll(ptr noundef nonnull align 8 dereferenceable(24) %35, i64 noundef %38, i64 noundef %41)
          to label %42 unwind label %73

42:                                               ; preds = %16
  %43 = load ptr, ptr %6, align 8, !tbaa !36
  %44 = invoke noundef ptr @_ZN7Imf_3_47Array2DINS_4RgbaEEixEl(ptr noundef nonnull align 8 dereferenceable(24) %43, i64 noundef 0)
          to label %45 unwind label %73

45:                                               ; preds = %42
  %46 = getelementptr inbounds %"struct.Imf_3_4::Rgba", ptr %44, i64 0
  %47 = getelementptr inbounds nuw %"class.Imath_3_2::Box", ptr %10, i32 0, i32 0
  %48 = getelementptr inbounds nuw %"class.Imath_3_2::Vec2.0", ptr %47, i32 0, i32 0
  %49 = load i32, ptr %48, align 4, !tbaa !41
  %50 = sext i32 %49 to i64
  %51 = sub i64 0, %50
  %52 = getelementptr inbounds %"struct.Imf_3_4::Rgba", ptr %46, i64 %51
  %53 = getelementptr inbounds nuw %"class.Imath_3_2::Box", ptr %10, i32 0, i32 0
  %54 = getelementptr inbounds nuw %"class.Imath_3_2::Vec2.0", ptr %53, i32 0, i32 1
  %55 = load i32, ptr %54, align 4, !tbaa !25
  %56 = load ptr, ptr %7, align 8, !tbaa !38
  %57 = load i32, ptr %56, align 4, !tbaa !11
  %58 = mul nsw i32 %55, %57
  %59 = sext i32 %58 to i64
  %60 = sub i64 0, %59
  %61 = getelementptr inbounds %"struct.Imf_3_4::Rgba", ptr %52, i64 %60
  %62 = load ptr, ptr %7, align 8, !tbaa !38
  %63 = load i32, ptr %62, align 4, !tbaa !11
  %64 = sext i32 %63 to i64
  invoke void @_ZN7Imf_3_413RgbaInputFile14setFrameBufferEPNS_4RgbaEmm(ptr noundef nonnull align 8 dereferenceable(64) %9, ptr noundef %61, i64 noundef 1, i64 noundef %64)
          to label %65 unwind label %73

65:                                               ; preds = %45
  %66 = getelementptr inbounds nuw %"class.Imath_3_2::Box", ptr %10, i32 0, i32 0
  %67 = getelementptr inbounds nuw %"class.Imath_3_2::Vec2.0", ptr %66, i32 0, i32 1
  %68 = load i32, ptr %67, align 4, !tbaa !25
  %69 = getelementptr inbounds nuw %"class.Imath_3_2::Box", ptr %10, i32 0, i32 1
  %70 = getelementptr inbounds nuw %"class.Imath_3_2::Vec2.0", ptr %69, i32 0, i32 1
  %71 = load i32, ptr %70, align 4, !tbaa !22
  invoke void @_ZN7Imf_3_413RgbaInputFile10readPixelsEii(ptr noundef nonnull align 8 dereferenceable(64) %9, i32 noundef %68, i32 noundef %71)
          to label %72 unwind label %73

72:                                               ; preds = %65
  call void @llvm.lifetime.end.p0(i64 16, ptr %10) #3
  call void @_ZN7Imf_3_413RgbaInputFileD1Ev(ptr noundef nonnull align 8 dereferenceable(64) %9) #3
  call void @llvm.lifetime.end.p0(i64 64, ptr %9) #3
  ret void

73:                                               ; preds = %65, %45, %42, %16, %4
  %74 = landingpad { ptr, i32 }
          cleanup
  %75 = extractvalue { ptr, i32 } %74, 0
  store ptr %75, ptr %11, align 8
  %76 = extractvalue { ptr, i32 } %74, 1
  store i32 %76, ptr %12, align 4
  call void @llvm.lifetime.end.p0(i64 16, ptr %10) #3
  call void @_ZN7Imf_3_413RgbaInputFileD1Ev(ptr noundef nonnull align 8 dereferenceable(64) %9) #3
  call void @llvm.lifetime.end.p0(i64 64, ptr %9) #3
  br label %77

77:                                               ; preds = %73
  %78 = load ptr, ptr %11, align 8
  %79 = load i32, ptr %12, align 4
  %80 = insertvalue { ptr, i32 } poison, ptr %78, 0
  %81 = insertvalue { ptr, i32 } %80, i32 %79, 1
  resume { ptr, i32 } %81
}